target datalayout = "e-m:e-p270:32:32-p271:32:32-p272:64:64-i64:64-i128:128-f80:128-n8:16:32:64-S128"
target triple = "x86_64-pc-linux-gnu"

@.str.3 = private unnamed_addr constant [2 x i8] c"\0A\00", align 1
@.str.4 = private unnamed_addr constant [116 x i8] c"    memory [-norom] [-nomap] [-nordff] [-nowiden] [-nosat] [-memx] [-no-rw-check] [-bram <bram_rules>] [selection]\0A\00", align 1
@.str.5 = private unnamed_addr constant [66 x i8] c"This pass calls all the other memory_* passes in a useful order:\0A\00", align 1
@.str.6 = private unnamed_addr constant [13 x i8] c"    opt_mem\0A\00", align 1
@.str.7 = private unnamed_addr constant [22 x i8] c"    opt_mem_priority\0A\00", align 1
@.str.8 = private unnamed_addr constant [22 x i8] c"    opt_mem_feedback\0A\00", align 1
@.str.9 = private unnamed_addr constant [73 x i8] c"    memory_bmux2rom                     (skipped if called with -norom)\0A\00", align 1
@.str.10 = private unnamed_addr constant [83 x i8] c"    memory_dff [-no-rw-check]           (skipped if called with -nordff or -memx)\0A\00", align 1
@.str.11 = private unnamed_addr constant [15 x i8] c"    opt_clean\0A\00", align 1
@.str.12 = private unnamed_addr constant [38 x i8] c"    memory_share [-nowiden] [-nosat]\0A\00", align 1
@.str.13 = private unnamed_addr constant [19 x i8] c"    opt_mem_widen\0A\00", align 1
@.str.14 = private unnamed_addr constant [66 x i8] c"    memory_memx                         (when called with -memx)\0A\00", align 1
@.str.15 = private unnamed_addr constant [20 x i8] c"    memory_collect\0A\00", align 1
@.str.16 = private unnamed_addr constant [66 x i8] c"    memory_bram -rules <bram_rules>     (when called with -bram)\0A\00", align 1
@.str.17 = private unnamed_addr constant [73 x i8] c"    memory_map                          (skipped if called with -nomap)\0A\00", align 1
@.str.18 = private unnamed_addr constant [63 x i8] c"This converts memories to word-wide DFFs and address decoders\0A\00", align 1
@.str.19 = private unnamed_addr constant [62 x i8] c"or multiport memory blocks if called with the -nomap option.\0A\00", align 1

; Function Attrs: mustprogress uwtable
define internal void @_ZN12_GLOBAL__N_110MemoryPass4helpEv(ptr noundef nonnull align 8 dereferenceable(104) %0) unnamed_addr #4 align 2 {
  %2 = alloca ptr, align 8
  store ptr %0, ptr %2, align 8
  call void (ptr, ...) @_ZN5Yosys3logEPKcz(ptr noundef @.str.3)
  call void (ptr, ...) @_ZN5Yosys3logEPKcz(ptr noundef @.str.4)
  call void (ptr, ...) @_ZN5Yosys3logEPKcz(ptr noundef @.str.3)
  call void (ptr, ...) @_ZN5Yosys3logEPKcz(ptr noundef @.str.5)
  call void (ptr, ...) @_ZN5Yosys3logEPKcz(ptr noundef @.str.3)
  call void (ptr, ...) @_ZN5Yosys3logEPKcz(ptr noundef @.str.6)
  call void (ptr, ...) @_ZN5Yosys3logEPKcz(ptr noundef @.str.7)
  call void (ptr, ...) @_ZN5Yosys3logEPKcz(ptr noundef @.str.8)
  call void (ptr, ...) @_ZN5Yosys3logEPKcz(ptr noundef @.str.9)
  call void (ptr, ...) @_ZN5Yosys3logEPKcz(ptr noundef @.str.10)
  call void (ptr, ...) @_ZN5Yosys3logEPKcz(ptr noundef @.str.11)
  call void (ptr, ...) @_ZN5Yosys3logEPKcz(ptr noundef @.str.12)
  call void (ptr, ...) @_ZN5Yosys3logEPKcz(ptr noundef @.str.13)
  call void (ptr, ...) @_ZN5Yosys3logEPKcz(ptr noundef @.str.14)
  call void (ptr, ...) @_ZN5Yosys3logEPKcz(ptr noundef @.str.11)
  call void (ptr, ...) @_ZN5Yosys3logEPKcz(ptr noundef @.str.15)
  call void (ptr, ...) @_ZN5Yosys3logEPKcz(ptr noundef @.str.16)
  call void (ptr, ...) @_ZN5Yosys3logEPKcz(ptr noundef @.str.17)
  call void (ptr, ...) @_ZN5Yosys3logEPKcz(ptr noundef @.str.3)
  call void (ptr, ...) @_ZN5Yosys3logEPKcz(ptr noundef @.str.18)
  call void (ptr, ...) @_ZN5Yosys3logEPKcz(ptr noundef @.str.19)
  call void (ptr, ...) @_ZN5Yosys3logEPKcz(ptr noundef @.str.3)
  ret void
}